target datalayout = "e-m:e-p270:32:32-p271:32:32-p272:64:64-i64:64-i128:128-f80:128-n8:16:32:64-S128"
target triple = "x86_64-pc-linux-gnu"

%struct.__loadu_ps = type { <4 x float> }
%struct.__storeu_ps = type { <4 x float> }

; Function Attrs: alwaysinline nounwind uwtable
define available_externally void @_mm_storeu_ps(ptr noundef %0, <4 x float> noundef %1) #2 {
  %3 = alloca ptr, align 8
  %4 = alloca <4 x float>, align 16
  store ptr %0, ptr %3, align 8, !tbaa !21
  store <4 x float> %1, ptr %4, align 16, !tbaa !12
  %5 = load <4 x float>, ptr %4, align 16, !tbaa !12
  %6 = load ptr, ptr %3, align 8, !tbaa !21
  %7 = getelementptr inbounds nuw %struct.__storeu_ps, ptr %6, i32 0, i32 0
  store <4 x float> %5, ptr %7, align 1, !tbaa !12
  ret void
}

; Function Attrs: alwaysinline nounwind uwtable
define available_externally <4 x float> @_mm_castsi128_ps(<2 x i64> noundef %0) #2 {
  %2 = alloca <2 x i64>, align 16
  store <2 x i64> %0, ptr %2, align 16, !tbaa !12
  %3 = load <2 x i64>, ptr %2, align 16, !tbaa !12
  %4 = bitcast <2 x i64> %3 to <4 x float>
  ret <4 x float> %4
}

; Function Attrs: alwaysinline nounwind uwtable
define available_externally <2 x i64> @_mm_castps_si128(<4 x float> noundef %0) #2 {
  %2 = alloca <4 x float>, align 16
  store <4 x float> %0, ptr %2, align 16, !tbaa !12
  %3 = load <4 x float>, ptr %2, align 16, !tbaa !12
  %4 = bitcast <4 x float> %3 to <2 x i64>
  ret <2 x i64> %4
}

; Function Attrs: alwaysinline nounwind uwtable
define available_externally <4 x float> @_mm_loadu_ps(ptr noundef %0) #2 {
  %2 = alloca ptr, align 8
  store ptr %0, ptr %2, align 8, !tbaa !21
  %3 = load ptr, ptr %2, align 8, !tbaa !21
  %4 = getelementptr inbounds nuw %struct.__loadu_ps, ptr %3, i32 0, i32 0
  %5 = load <4 x float>, ptr %4, align 1, !tbaa !12
  ret <4 x float> %5
}

; Function Attrs: nounwind uwtable
define void @stbir__encode_float_linear_ARGB(ptr noundef %0, i32 noundef %1, ptr noundef %2) #0 {
  %4 = alloca ptr, align 8
  %5 = alloca i32, align 4
  %6 = alloca ptr, align 8
  %7 = alloca ptr, align 8
  %8 = alloca ptr, align 8
  %9 = alloca ptr, align 8
  %10 = alloca <4 x float>, align 16
  %11 = alloca <4 x float>, align 16
  %12 = alloca i32, align 4
  %13 = alloca <4 x float>, align 16
  store ptr %0, ptr %4, align 8, !tbaa !3
  store i32 %1, ptr %5, align 4, !tbaa !26
  store ptr %2, ptr %6, align 8, !tbaa !21
  call void @llvm.lifetime.start.p0(i64 8, ptr %7) #12
  %14 = load ptr, ptr %4, align 8, !tbaa !3
  store ptr %14, ptr %7, align 8, !tbaa !21
  call void @llvm.lifetime.start.p0(i64 8, ptr %8) #12
  %15 = load ptr, ptr %7, align 8, !tbaa !21
  %16 = load i32, ptr %5, align 4, !tbaa !26
  %17 = sext i32 %16 to i64
  %18 = getelementptr inbounds float, ptr %15, i64 %17
  store ptr %18, ptr %8, align 8, !tbaa !21
  %19 = load i32, ptr %5, align 4, !tbaa !26
  %20 = icmp sge i32 %19, 8
  br i1 %20, label %21, label %74

21:                                               ; preds = %3
  call void @llvm.lifetime.start.p0(i64 8, ptr %9) #12
  %22 = load ptr, ptr %6, align 8, !tbaa !21
  %23 = load i32, ptr %5, align 4, !tbaa !26
  %24 = sext i32 %23 to i64
  %25 = getelementptr inbounds float, ptr %22, i64 %24
  %26 = getelementptr inbounds float, ptr %25, i64 -8
  store ptr %26, ptr %9, align 8, !tbaa !21
  %27 = load ptr, ptr %8, align 8, !tbaa !21
  %28 = getelementptr inbounds float, ptr %27, i64 -8
  store ptr %28, ptr %8, align 8, !tbaa !21
  br label %29

29:                                               ; preds = %72, %70, %21
  call void @llvm.lifetime.start.p0(i64 16, ptr %10) #12
  call void @llvm.lifetime.start.p0(i64 16, ptr %11) #12
  %30 = load ptr, ptr %6, align 8, !tbaa !21
  call void asm sideeffect "", "r,~{dirflag},~{fpsr},~{flags}"(ptr %30) #12, !srcloc !346
  %31 = load ptr, ptr %6, align 8, !tbaa !21
  %32 = call <4 x float> @_mm_loadu_ps(ptr noundef %31)
  store <4 x float> %32, ptr %10, align 16, !tbaa !12
  %33 = load ptr, ptr %6, align 8, !tbaa !21
  %34 = getelementptr inbounds float, ptr %33, i64 4
  %35 = call <4 x float> @_mm_loadu_ps(ptr noundef %34)
  store <4 x float> %35, ptr %11, align 16, !tbaa !12
  %36 = load <4 x float>, ptr %10, align 16, !tbaa !12
  %37 = call <2 x i64> @_mm_castps_si128(<4 x float> noundef %36)
  %38 = bitcast <2 x i64> %37 to <4 x i32>
  %39 = shufflevector <4 x i32> %38, <4 x i32> poison, <4 x i32> <i32 3, i32 0, i32 1, i32 2>
  %40 = bitcast <4 x i32> %39 to <2 x i64>
  %41 = call <4 x float> @_mm_castsi128_ps(<2 x i64> noundef %40)
  store <4 x float> %41, ptr %10, align 16, !tbaa !12
  %42 = load <4 x float>, ptr %11, align 16, !tbaa !12
  %43 = call <2 x i64> @_mm_castps_si128(<4 x float> noundef %42)
  %44 = bitcast <2 x i64> %43 to <4 x i32>
  %45 = shufflevector <4 x i32> %44, <4 x i32> poison, <4 x i32> <i32 3, i32 0, i32 1, i32 2>
  %46 = bitcast <4 x i32> %45 to <2 x i64>
  %47 = call <4 x float> @_mm_castsi128_ps(<2 x i64> noundef %46)
  store <4 x float> %47, ptr %11, align 16, !tbaa !12
  %48 = load ptr, ptr %7, align 8, !tbaa !21
  %49 = load <4 x float>, ptr %10, align 16, !tbaa !12
  call void @_mm_storeu_ps(ptr noundef %48, <4 x float> noundef %49)
  %50 = load ptr, ptr %7, align 8, !tbaa !21
  %51 = getelementptr inbounds float, ptr %50, i64 4
  %52 = load <4 x float>, ptr %11, align 16, !tbaa !12
  call void @_mm_storeu_ps(ptr noundef %51, <4 x float> noundef %52)
  %53 = load ptr, ptr %6, align 8, !tbaa !21
  %54 = getelementptr inbounds float, ptr %53, i64 8
  store ptr %54, ptr %6, align 8, !tbaa !21
  %55 = load ptr, ptr %7, align 8, !tbaa !21
  %56 = getelementptr inbounds float, ptr %55, i64 8
  store ptr %56, ptr %7, align 8, !tbaa !21
  %57 = load ptr, ptr %7, align 8, !tbaa !21
  %58 = load ptr, ptr %8, align 8, !tbaa !21
  %59 = icmp ult ptr %57, %58
  br i1 %59, label %60, label %61

60:                                               ; preds = %29
  store i32 3, ptr %12, align 4
  br label %70, !llvm.loop !347

61:                                               ; preds = %29
  %62 = load ptr, ptr %7, align 8, !tbaa !21
  %63 = load ptr, ptr %8, align 8, !tbaa !21
  %64 = getelementptr inbounds float, ptr %63, i64 8
  %65 = icmp eq ptr %62, %64
  br i1 %65, label %66, label %67

66:                                               ; preds = %61
  store i32 2, ptr %12, align 4
  br label %70

67:                                               ; preds = %61
  %68 = load ptr, ptr %8, align 8, !tbaa !21
  store ptr %68, ptr %7, align 8, !tbaa !21
  %69 = load ptr, ptr %9, align 8, !tbaa !21
  store ptr %69, ptr %6, align 8, !tbaa !21
  store i32 0, ptr %12, align 4
  br label %70

70:                                               ; preds = %67, %66, %60
  call void @llvm.lifetime.end.p0(i64 16, ptr %11) #12
  call void @llvm.lifetime.end.p0(i64 16, ptr %10) #12
  %71 = load i32, ptr %12, align 4
  switch i32 %71, label %104 [
    i32 0, label %72
    i32 3, label %29
    i32 2, label %73
  ]

72:                                               ; preds = %70
  br label %29, !llvm.loop !347

73:                                               ; preds = %70
  store i32 1, ptr %12, align 4
  call void @llvm.lifetime.end.p0(i64 8, ptr %9) #12
  br label %101

74:                                               ; preds = %3
  %75 = load ptr, ptr %7, align 8, !tbaa !21
  %76 = getelementptr inbounds float, ptr %75, i64 4
  store ptr %76, ptr %7, align 8, !tbaa !21
  br label %77

77:                                               ; preds = %81, %74
  %78 = load ptr, ptr %7, align 8, !tbaa !21
  %79 = load ptr, ptr %8, align 8, !tbaa !21
  %80 = icmp ule ptr %78, %79
  br i1 %80, label %81, label %98

81:                                               ; preds = %77
  call void @llvm.lifetime.start.p0(i64 16, ptr %13) #12
  %82 = load ptr, ptr %6, align 8, !tbaa !21
  call void asm sideeffect "", "r,~{dirflag},~{fpsr},~{flags}"(ptr %82) #12, !srcloc !348
  %83 = load ptr, ptr %6, align 8, !tbaa !21
  %84 = call <4 x float> @_mm_loadu_ps(ptr noundef %83)
  store <4 x float> %84, ptr %13, align 16, !tbaa !12
  %85 = load <4 x float>, ptr %13, align 16, !tbaa !12
  %86 = call <2 x i64> @_mm_castps_si128(<4 x float> noundef %85)
  %87 = bitcast <2 x i64> %86 to <4 x i32>
  %88 = shufflevector <4 x i32> %87, <4 x i32> poison, <4 x i32> <i32 3, i32 0, i32 1, i32 2>
  %89 = bitcast <4 x i32> %88 to <2 x i64>
  %90 = call <4 x float> @_mm_castsi128_ps(<2 x i64> noundef %89)
  store <4 x float> %90, ptr %13, align 16, !tbaa !12
  %91 = load ptr, ptr %7, align 8, !tbaa !21
  %92 = getelementptr inbounds float, ptr %91, i64 -4
  %93 = load <4 x float>, ptr %13, align 16, !tbaa !12
  call void @_mm_storeu_ps(ptr noundef %92, <4 x float> noundef %93)
  %94 = load ptr, ptr %7, align 8, !tbaa !21
  %95 = getelementptr inbounds float, ptr %94, i64 4
  store ptr %95, ptr %7, align 8, !tbaa !21
  %96 = load ptr, ptr %6, align 8, !tbaa !21
  %97 = getelementptr inbounds float, ptr %96, i64 4
  store ptr %97, ptr %6, align 8, !tbaa !21
  call void @llvm.lifetime.end.p0(i64 16, ptr %13) #12
  br label %77, !llvm.loop !349

98:                                               ; preds = %77
  %99 = load ptr, ptr %7, align 8, !tbaa !21
  %100 = getelementptr inbounds float, ptr %99, i64 -4
  store ptr %100, ptr %7, align 8, !tbaa !21
  store i32 0, ptr %12, align 4
  br label %101

101:                                              ; preds = %98, %73
  call void @llvm.lifetime.end.p0(i64 8, ptr %8) #12
  call void @llvm.lifetime.end.p0(i64 8, ptr %7) #12
  %102 = load i32, ptr %12, align 4
  switch i32 %102, label %104 [
    i32 0, label %103
    i32 1, label %103
  ]

103:                                              ; preds = %101, %101
  ret void

104:                                              ; preds = %101, %70
  unreachable
}