; Function Attrs: nounwind uwtable
define void @stbir__encode_float_linear_ARGB(ptr noundef writeonly captures(address) %0, i32 noundef %1, ptr noundef %2) #0 {
  %4 = sext i32 %1 to i64
  %.idx = shl nsw i64 %4, 2
  %5 = getelementptr inbounds i8, ptr %0, i64 %.idx
  %6 = icmp sgt i32 %1, 7
  br i1 %6, label %7, label %.preheader

.preheader:                                       ; preds = %3
  %.not46 = icmp slt i32 %1, 4
  br i1 %.not46, label %.loopexit, label %.lr.ph.preheader

.lr.ph.preheader:                                 ; preds = %.preheader
  %.23845 = getelementptr inbounds nuw i8, ptr %0, i64 16
  br label %.lr.ph

7:                                                ; preds = %3
  %8 = getelementptr inbounds nuw float, ptr %2, i64 %4
  %9 = getelementptr inbounds i8, ptr %8, i64 -32
  %10 = getelementptr inbounds i8, ptr %5, i64 -32
  br label %11

11:                                               ; preds = %11, %7
  %.036 = phi ptr [ %0, %7 ], [ %.137, %11 ]
  %.0 = phi ptr [ %2, %7 ], [ %.1, %11 ]
  tail call void asm sideeffect "", "r,~{dirflag},~{fpsr},~{flags}"(ptr %.0) #24, !srcloc !297
  %12 = load <4 x float>, ptr %.0, align 1, !tbaa !4
  %13 = getelementptr inbounds nuw i8, ptr %.0, i64 16
  %14 = load <4 x float>, ptr %13, align 1, !tbaa !4
  %15 = shufflevector <4 x float> %12, <4 x float> poison, <4 x i32> <i32 3, i32 0, i32 1, i32 2>
  %16 = shufflevector <4 x float> %14, <4 x float> poison, <4 x i32> <i32 3, i32 0, i32 1, i32 2>
  store <4 x float> %15, ptr %.036, align 1, !tbaa !4
  %17 = getelementptr inbounds nuw i8, ptr %.036, i64 16
  store <4 x float> %16, ptr %17, align 1, !tbaa !4
  %18 = getelementptr inbounds nuw i8, ptr %.0, i64 32
  %19 = getelementptr inbounds nuw i8, ptr %.036, i64 32
  %20 = icmp ult ptr %19, %10
  %21 = icmp eq ptr %19, %5
  %22 = or i1 %20, %21
  %.137 = select i1 %22, ptr %19, ptr %10
  %.1 = select i1 %22, ptr %18, ptr %9
  %not. = xor i1 %20, true
  %switch = select i1 %not., i1 %21, i1 false
  br i1 %switch, label %.loopexit, label %11

.lr.ph:                                           ; preds = %.lr.ph.preheader, %.lr.ph
  %.23849 = phi ptr [ %.238, %.lr.ph ], [ %.23845, %.lr.ph.preheader ]
  %.248 = phi ptr [ %25, %.lr.ph ], [ %2, %.lr.ph.preheader ]
  %.pn47 = phi ptr [ %.23849, %.lr.ph ], [ %0, %.lr.ph.preheader ]
  tail call void asm sideeffect "", "r,~{dirflag},~{fpsr},~{flags}"(ptr %.248) #24, !srcloc !298
  %23 = load <4 x float>, ptr %.248, align 1, !tbaa !4
  %24 = shufflevector <4 x float> %23, <4 x float> poison, <4 x i32> <i32 3, i32 0, i32 1, i32 2>
  store <4 x float> %24, ptr %.pn47, align 1, !tbaa !4
  %25 = getelementptr inbounds nuw i8, ptr %.248, i64 16
  %.238 = getelementptr inbounds nuw i8, ptr %.23849, i64 16
  %.not = icmp ugt ptr %.238, %5
  br i1 %.not, label %.loopexit, label %.lr.ph, !llvm.loop !299

.loopexit:                                        ; preds = %.lr.ph, %11, %.preheader
  ret void
}